target datalayout = "e-m:e-p270:32:32-p271:32:32-p272:64:64-i64:64-i128:128-f80:128-n8:16:32:64-S128"
target triple = "x86_64-unknown-linux-gnu"

%"class.std::chrono::duration" = type { i64 }
%"class.proxygen::SessionPool" = type { %"class.proxygen::SessionHolder::Callback", ptr, i32, %"class.std::chrono::duration", %"class.std::chrono::duration", %"class.boost::intrusive::list", %"class.boost::intrusive::list", %"class.boost::intrusive::list", ptr, ptr, ptr }
%"class.proxygen::SessionHolder::Callback" = type { ptr }
%"class.boost::intrusive::list" = type { %"class.boost::intrusive::list_impl" }
%"class.boost::intrusive::list_impl" = type { %"struct.boost::intrusive::list_impl<boost::intrusive::mhtraits<proxygen::SessionHolder, boost::intrusive::list_member_hook<boost::intrusive::link_mode<boost::intrusive::safe_link>>, &proxygen::SessionHolder::listHook>, unsigned long, true, void>::data_t" }
%"struct.boost::intrusive::list_impl<boost::intrusive::mhtraits<proxygen::SessionHolder, boost::intrusive::list_member_hook<boost::intrusive::link_mode<boost::intrusive::safe_link>>, &proxygen::SessionHolder::listHook>, unsigned long, true, void>::data_t" = type { %"struct.boost::intrusive::list_impl<boost::intrusive::mhtraits<proxygen::SessionHolder, boost::intrusive::list_member_hook<boost::intrusive::link_mode<boost::intrusive::safe_link>>, &proxygen::SessionHolder::listHook>, unsigned long, true, void>::root_plus_size" }
%"struct.boost::intrusive::list_impl<boost::intrusive::mhtraits<proxygen::SessionHolder, boost::intrusive::list_member_hook<boost::intrusive::link_mode<boost::intrusive::safe_link>>, &proxygen::SessionHolder::listHook>, unsigned long, true, void>::root_plus_size" = type { %"struct.boost::intrusive::detail::size_holder", %"struct.boost::intrusive::detail::default_header_holder" }
%"struct.boost::intrusive::detail::size_holder" = type { i64 }
%"struct.boost::intrusive::detail::default_header_holder" = type { %"struct.boost::intrusive::list_node" }
%"struct.boost::intrusive::list_node" = type { ptr, ptr }

; Function Attrs: mustprogress nounwind uwtable
define linkonce_odr noundef zeroext i1 @_ZN5boost9intrusive24circular_list_algorithmsINS0_16list_node_traitsIPvEEE6uniqueEPKNS0_9list_nodeIS3_EE(ptr noundef %this_node) #5 comdat align 2 personality ptr @__gxx_personality_v0 {
entry:
  %n.addr.i = alloca ptr, align 8
  %this_node.addr = alloca ptr, align 8
  %next = alloca ptr, align 8
  store ptr %this_node, ptr %this_node.addr, align 8
  %0 = load ptr, ptr %this_node.addr, align 8
  store ptr %0, ptr %n.addr.i, align 8
  %1 = load ptr, ptr %n.addr.i, align 8
  %2 = load ptr, ptr %1, align 8
  br label %invoke.cont

invoke.cont:                                      ; preds = %entry
  store ptr %2, ptr %next, align 8
  %3 = load ptr, ptr %next, align 8
  %tobool = icmp ne ptr %3, null
  br i1 %tobool, label %lor.rhs, label %lor.end

lor.rhs:                                          ; preds = %invoke.cont
  %4 = load ptr, ptr %next, align 8
  %5 = load ptr, ptr %this_node.addr, align 8
  %cmp = icmp eq ptr %4, %5
  br label %lor.end

lor.end:                                          ; preds = %lor.rhs, %invoke.cont
  %6 = phi i1 [ true, %invoke.cont ], [ %cmp, %lor.rhs ]
  ret i1 %6

terminate.lpad:                                   ; No predecessors!
  %7 = landingpad { ptr, i32 }
          catch ptr null
  %8 = extractvalue { ptr, i32 } %7, 0
  call void @__clang_call_terminate(ptr %8) #15
  unreachable
}

; Function Attrs: noreturn nounwind uwtable
define linkonce_odr hidden void @__clang_call_terminate(ptr noundef %0) #7 comdat {
  %2 = call ptr @__cxa_begin_catch(ptr %0) #3
  call void @_ZSt9terminatev() #15
  unreachable
}

; Function Attrs: mustprogress uwtable
define noundef ptr @_ZN8proxygen11SessionPool22attemptOpenTransactionEPNS_22HTTPTransactionHandlerERN5boost9intrusive4listINS_13SessionHolderEJNS4_11member_hookIS6_NS4_16list_member_hookIJNS4_9link_modeILNS4_14link_mode_typeE1EEEEEEXadL_ZNS6_8listHookEEEEENS4_18constant_time_sizeILb1EEEEEE(ptr noundef nonnull align 8 dereferenceable(136) %this, ptr noundef %upstreamHandler, ptr noundef nonnull align 8 dereferenceable(24) %list) #4 align 2 personality ptr @__gxx_personality_v0 {
entry:
  %v.addr.i.i = alloca ptr, align 8
  %r.addr.i.i = alloca ptr, align 8
  %this.addr.i34 = alloca ptr, align 8
  %this.addr.i30 = alloca ptr, align 8
  %v.addr.i29 = alloca ptr, align 8
  %r.addr.i27 = alloca ptr, align 8
  %this.addr.i24 = alloca ptr, align 8
  %ptr_to_member.addr.i23 = alloca i64, align 8
  %parent.i = alloca ptr, align 8
  %member.i = alloca ptr, align 8
  %v.addr.i = alloca ptr, align 8
  %p.addr.i = alloca ptr, align 8
  %member.addr.i = alloca ptr, align 8
  %ptr_to_member.addr.i = alloca i64, align 8
  %r.addr.i = alloca ptr, align 8
  %n.addr.i20 = alloca ptr, align 8
  %n.addr.i = alloca ptr, align 8
  %this.addr.i15 = alloca ptr, align 8
  %this.addr.i12 = alloca ptr, align 8
  %this.addr.i7 = alloca ptr, align 8
  %this.addr.i = alloca ptr, align 8
  %retval = alloca ptr, align 8
  %this.addr = alloca ptr, align 8
  %upstreamHandler.addr = alloca ptr, align 8
  %list.addr = alloca ptr, align 8
  %holder = alloca ptr, align 8
  %agg.tmp = alloca %"class.std::chrono::duration", align 8
  %txn = alloca ptr, align 8
  store ptr %this, ptr %this.addr, align 8
  store ptr %upstreamHandler, ptr %upstreamHandler.addr, align 8
  store ptr %list, ptr %list.addr, align 8
  %this1 = load ptr, ptr %this.addr, align 8
  store ptr null, ptr %holder, align 8
  br label %while.cond

while.cond:                                       ; preds = %if.end6, %if.then, %entry
  %0 = load ptr, ptr %list.addr, align 8
  store ptr %0, ptr %this.addr.i, align 8
  %this1.i = load ptr, ptr %this.addr.i, align 8
  store ptr %this1.i, ptr %this.addr.i30, align 8
  %this1.i31 = load ptr, ptr %this.addr.i30, align 8
  %m_header.i32 = getelementptr inbounds %"struct.boost::intrusive::list_impl<boost::intrusive::mhtraits<proxygen::SessionHolder, boost::intrusive::list_member_hook<boost::intrusive::link_mode<boost::intrusive::safe_link>>, &proxygen::SessionHolder::listHook>, unsigned long, true, void>::root_plus_size", ptr %this1.i31, i32 0, i32 1
  store ptr %m_header.i32, ptr %this.addr.i34, align 8
  %this1.i35 = load ptr, ptr %this.addr.i34, align 8
  store ptr %this1.i35, ptr %r.addr.i.i, align 8
  %1 = load ptr, ptr %r.addr.i.i, align 8
  store ptr %1, ptr %v.addr.i.i, align 8
  %2 = load ptr, ptr %v.addr.i.i, align 8
  br label %_ZNK5boost9intrusive9list_implINS0_8mhtraitsIN8proxygen13SessionHolderENS0_16list_member_hookIJNS0_9link_modeILNS0_14link_mode_typeE1EEEEEEXadL_ZNS4_8listHookEEEEEmLb1EvE5emptyEv.exit

terminate.lpad.i:                                 ; No predecessors!
  %3 = landingpad { ptr, i32 }
          catch ptr null
  %4 = extractvalue { ptr, i32 } %3, 0
  call void @__clang_call_terminate(ptr %4) #15
  unreachable

_ZNK5boost9intrusive9list_implINS0_8mhtraitsIN8proxygen13SessionHolderENS0_16list_member_hookIJNS0_9link_modeILNS0_14link_mode_typeE1EEEEEEXadL_ZNS4_8listHookEEEEEmLb1EvE5emptyEv.exit: ; preds = %while.cond
  %call2.i = call noundef zeroext i1 @_ZN5boost9intrusive24circular_list_algorithmsINS0_16list_node_traitsIPvEEE6uniqueEPKNS0_9list_nodeIS3_EE(ptr noundef %2) #3
  %lnot = xor i1 %call2.i, true
  br i1 %lnot, label %while.body, label %while.end

while.body:                                       ; preds = %_ZNK5boost9intrusive9list_implINS0_8mhtraitsIN8proxygen13SessionHolderENS0_16list_member_hookIJNS0_9link_modeILNS0_14link_mode_typeE1EEEEEEXadL_ZNS4_8listHookEEEEEmLb1EvE5emptyEv.exit
  %5 = load ptr, ptr %list.addr, align 8
  store ptr %5, ptr %this.addr.i7, align 8
  %this1.i8 = load ptr, ptr %this.addr.i7, align 8
  store ptr %this1.i8, ptr %this.addr.i15, align 8
  store ptr %this1.i8, ptr %this.addr.i12, align 8
  %this1.i13 = load ptr, ptr %this.addr.i12, align 8
  %m_header.i = getelementptr inbounds %"struct.boost::intrusive::list_impl<boost::intrusive::mhtraits<proxygen::SessionHolder, boost::intrusive::list_member_hook<boost::intrusive::link_mode<boost::intrusive::safe_link>>, &proxygen::SessionHolder::listHook>, unsigned long, true, void>::root_plus_size", ptr %this1.i13, i32 0, i32 1
  store ptr %m_header.i, ptr %this.addr.i24, align 8
  %this1.i25 = load ptr, ptr %this.addr.i24, align 8
  store ptr %this1.i25, ptr %r.addr.i27, align 8
  %6 = load ptr, ptr %r.addr.i27, align 8
  store ptr %6, ptr %v.addr.i29, align 8
  %7 = load ptr, ptr %v.addr.i29, align 8
  br label %invoke.cont.i

invoke.cont.i:                                    ; preds = %while.body
  store ptr %7, ptr %n.addr.i20, align 8
  %8 = load ptr, ptr %n.addr.i20, align 8
  %9 = load ptr, ptr %8, align 8
  store ptr %9, ptr %n.addr.i, align 8
  %10 = load ptr, ptr %n.addr.i, align 8
  store ptr %10, ptr %p.addr.i, align 8
  %11 = load ptr, ptr %p.addr.i, align 8
  store ptr %11, ptr %member.addr.i, align 8
  store i64 8, ptr %ptr_to_member.addr.i, align 8
  %12 = load ptr, ptr %member.addr.i, align 8
  %13 = load i64, ptr %ptr_to_member.addr.i, align 8
  store i64 %13, ptr %ptr_to_member.addr.i23, align 8
  store ptr null, ptr %parent.i, align 8
  %14 = load i64, ptr %ptr_to_member.addr.i23, align 8
  %memptr.offset.i = getelementptr inbounds i8, ptr null, i64 %14
  store ptr %memptr.offset.i, ptr %member.i, align 8
  %15 = load ptr, ptr %member.i, align 8
  %sub.ptr.lhs.cast.i = ptrtoint ptr %15 to i64
  %idx.neg.i = sub i64 0, %sub.ptr.lhs.cast.i
  %add.ptr.i = getelementptr inbounds i8, ptr %12, i64 %idx.neg.i
  br label %_ZN5boost9intrusive8mhtraitsIN8proxygen13SessionHolderENS0_16list_member_hookIJNS0_9link_modeILNS0_14link_mode_typeE1EEEEEEXadL_ZNS3_8listHookEEEE12to_value_ptrEPNS0_9list_nodeIPvEE.exit

_ZN5boost9intrusive8mhtraitsIN8proxygen13SessionHolderENS0_16list_member_hookIJNS0_9link_modeILNS0_14link_mode_typeE1EEEEEEXadL_ZNS3_8listHookEEEE12to_value_ptrEPNS0_9list_nodeIPvEE.exit: ; preds = %invoke.cont.i
  store ptr %add.ptr.i, ptr %r.addr.i, align 8
  %16 = load ptr, ptr %r.addr.i, align 8
  store ptr %16, ptr %v.addr.i, align 8
  %17 = load ptr, ptr %v.addr.i, align 8
  br label %_ZN5boost9intrusive9list_implINS0_8mhtraitsIN8proxygen13SessionHolderENS0_16list_member_hookIJNS0_9link_modeILNS0_14link_mode_typeE1EEEEEEXadL_ZNS4_8listHookEEEEEmLb1EvE5frontEv.exit

terminate.lpad.i11:                               ; No predecessors!
  %18 = landingpad { ptr, i32 }
          catch ptr null
  %19 = extractvalue { ptr, i32 } %18, 0
  call void @__clang_call_terminate(ptr %19) #15
  unreachable

_ZN5boost9intrusive9list_implINS0_8mhtraitsIN8proxygen13SessionHolderENS0_16list_member_hookIJNS0_9link_modeILNS0_14link_mode_typeE1EEEEEEXadL_ZNS4_8listHookEEEEEmLb1EvE5frontEv.exit: ; preds = %_ZN5boost9intrusive8mhtraitsIN8proxygen13SessionHolderENS0_16list_member_hookIJNS0_9link_modeILNS0_14link_mode_typeE1EEEEEEXadL_ZNS3_8listHookEEEE12to_value_ptrEPNS0_9list_nodeIPvEE.exit
  store ptr %17, ptr %holder, align 8
  %20 = load ptr, ptr %holder, align 8
  %maxAge_ = getelementptr inbounds %"class.proxygen::SessionPool", ptr %this1, i32 0, i32 4
  call void @llvm.memcpy.p0.p0.i64(ptr align 8 %agg.tmp, ptr align 8 %maxAge_, i64 8, i1 false)
  %coerce.dive = getelementptr inbounds %"class.std::chrono::duration", ptr %agg.tmp, i32 0, i32 0
  %21 = load i64, ptr %coerce.dive, align 8
  %call3 = call noundef zeroext i1 @_ZNK8proxygen13SessionHolder12shouldAgeOutENSt6chrono8durationIlSt5ratioILl1ELl1000EEEE(ptr noundef nonnull align 8 dereferenceable(152) %20, i64 %21)
  br i1 %call3, label %if.then, label %if.end

if.then:                                          ; preds = %_ZN5boost9intrusive9list_implINS0_8mhtraitsIN8proxygen13SessionHolderENS0_16list_member_hookIJNS0_9link_modeILNS0_14link_mode_typeE1EEEEEEXadL_ZNS4_8listHookEEEEEmLb1EvE5frontEv.exit
  %22 = load ptr, ptr %holder, align 8
  call void @_ZN8proxygen13SessionHolder5drainEv(ptr noundef nonnull align 8 dereferenceable(152) %22)
  br label %while.cond, !llvm.loop !8

if.end:                                           ; preds = %_ZN5boost9intrusive9list_implINS0_8mhtraitsIN8proxygen13SessionHolderENS0_16list_member_hookIJNS0_9link_modeILNS0_14link_mode_typeE1EEEEEEXadL_ZNS4_8listHookEEEEEmLb1EvE5frontEv.exit
  %23 = load ptr, ptr %holder, align 8
  %24 = load ptr, ptr %upstreamHandler.addr, align 8
  %call4 = call noundef ptr @_ZN8proxygen13SessionHolder14newTransactionEPNS_22HTTPTransactionHandlerE(ptr noundef nonnull align 8 dereferenceable(152) %23, ptr noundef %24)
  store ptr %call4, ptr %txn, align 8
  %25 = load ptr, ptr %holder, align 8
  call void @_ZN8proxygen13SessionHolder6unlinkEv(ptr noundef nonnull align 8 dereferenceable(152) %25)
  %26 = load ptr, ptr %holder, align 8
  call void @_ZN8proxygen13SessionHolder4linkEv(ptr noundef nonnull align 8 dereferenceable(152) %26)
  %27 = load ptr, ptr %txn, align 8
  %tobool = icmp ne ptr %27, null
  br i1 %tobool, label %if.then5, label %if.end6

if.then5:                                         ; preds = %if.end
  %28 = load ptr, ptr %txn, align 8
  store ptr %28, ptr %retval, align 8
  br label %return

if.end6:                                          ; preds = %if.end
  br label %while.cond, !llvm.loop !8

while.end:                                        ; preds = %_ZNK5boost9intrusive9list_implINS0_8mhtraitsIN8proxygen13SessionHolderENS0_16list_member_hookIJNS0_9link_modeILNS0_14link_mode_typeE1EEEEEEXadL_ZNS4_8listHookEEEEEmLb1EvE5emptyEv.exit
  store ptr null, ptr %retval, align 8
  br label %return

return:                                           ; preds = %while.end, %if.then5
  %29 = load ptr, ptr %retval, align 8
  ret ptr %29
}