; Function Attrs: mustprogress uwtable
define noundef ptr @_ZN8proxygen11SessionPool22attemptOpenTransactionEPNS_22HTTPTransactionHandlerERN5boost9intrusive4listINS_13SessionHolderEJNS4_11member_hookIS6_NS4_16list_member_hookIJNS4_9link_modeILNS4_14link_mode_typeE1EEEEEEXadL_ZNS6_8listHookEEEEENS4_18constant_time_sizeILb1EEEEEE(ptr nocapture noundef nonnull readonly align 8 dereferenceable(136) %this, ptr noundef %upstreamHandler, ptr noundef nonnull readonly align 8 dereferenceable(24) %list) local_unnamed_addr #3 align 2 personality ptr @__gxx_personality_v0 {
entry:
  %m_header.i32 = getelementptr inbounds i8, ptr %list, i64 8
  %0 = load ptr, ptr %m_header.i32, align 8
  %tobool.not.i7 = icmp eq ptr %0, null
  %cmp.i8 = icmp eq ptr %0, %m_header.i32
  %1 = or i1 %tobool.not.i7, %cmp.i8
  br i1 %1, label %return, label %while.body.lr.ph

while.body.lr.ph:                                 ; preds = %entry
  %maxAge_ = getelementptr inbounds i8, ptr %this, i64 32
  br label %while.body

while.body:                                       ; preds = %while.body.lr.ph, %while.cond.backedge
  %2 = phi ptr [ %0, %while.body.lr.ph ], [ %3, %while.cond.backedge ]
  %add.ptr.i = getelementptr inbounds i8, ptr %2, i64 -8
  %agg.tmp.sroa.0.0.copyload = load i64, ptr %maxAge_, align 8
  %call3 = tail call noundef zeroext i1 @_ZNK8proxygen13SessionHolder12shouldAgeOutENSt6chrono8durationIlSt5ratioILl1ELl1000EEEE(ptr noundef nonnull align 8 dereferenceable(152) %add.ptr.i, i64 %agg.tmp.sroa.0.0.copyload)
  br i1 %call3, label %if.then, label %if.end

if.then:                                          ; preds = %while.body
  tail call void @_ZN8proxygen13SessionHolder5drainEv(ptr noundef nonnull align 8 dereferenceable(152) %add.ptr.i)
  br label %while.cond.backedge

while.cond.backedge:                              ; preds = %if.then, %if.end
  %3 = load ptr, ptr %m_header.i32, align 8
  %tobool.not.i = icmp eq ptr %3, null
  %cmp.i = icmp eq ptr %3, %m_header.i32
  %4 = or i1 %tobool.not.i, %cmp.i
  br i1 %4, label %return, label %while.body, !llvm.loop !8

if.end:                                           ; preds = %while.body
  %call4 = tail call noundef ptr @_ZN8proxygen13SessionHolder14newTransactionEPNS_22HTTPTransactionHandlerE(ptr noundef nonnull align 8 dereferenceable(152) %add.ptr.i, ptr noundef %upstreamHandler)
  tail call void @_ZN8proxygen13SessionHolder6unlinkEv(ptr noundef nonnull align 8 dereferenceable(152) %add.ptr.i)
  tail call void @_ZN8proxygen13SessionHolder4linkEv(ptr noundef nonnull align 8 dereferenceable(152) %add.ptr.i)
  %tobool.not = icmp eq ptr %call4, null
  br i1 %tobool.not, label %while.cond.backedge, label %return

return:                                           ; preds = %if.end, %while.cond.backedge, %entry
  %retval.0 = phi ptr [ null, %entry ], [ null, %while.cond.backedge ], [ %call4, %if.end ]
  ret ptr %retval.0
}